; Function Attrs: nounwind uwtable
define noalias nonnull ptr @l_Lean_isTracingEnabledFor___at___private_Lean_Elab_PreDefinition_Structural_BRecOn_0__Lean_Elab_Structural_replaceRecApps_loop___spec__27___rarg(ptr noundef %0, ptr readnone captures(none) %1, ptr readnone captures(none) %2, ptr readnone captures(none) %3, ptr readnone captures(none) %4, ptr noundef readonly captures(none) %5, ptr readnone captures(none) %6, ptr noundef %7) local_unnamed_addr #0 {
  %9 = getelementptr inbounds nuw i8, ptr %5, i64 104
  %10 = load ptr, ptr %9, align 8, !tbaa !4
  %11 = getelementptr inbounds nuw i8, ptr %5, i64 24
  %12 = load ptr, ptr %11, align 8, !tbaa !4
  %13 = tail call zeroext i8 @l_Lean_checkTraceOption(ptr noundef %10, ptr noundef %12, ptr noundef %0) #6
  tail call void @lean_inc_heartbeat() #6
  %14 = tail call noalias ptr @mi_malloc_small(i64 noundef 24) #6
  %15 = icmp eq ptr %14, null
  br i1 %15, label %16, label %lean_alloc_ctor.exit

16:                                               ; preds = %8
  tail call void @lean_internal_panic_out_of_memory() #7
  unreachable

lean_alloc_ctor.exit:                             ; preds = %8
  %17 = zext i8 %13 to i64
  %18 = shl nuw nsw i64 %17, 1
  %19 = or disjoint i64 %18, 1
  %20 = inttoptr i64 %19 to ptr
  %21 = getelementptr inbounds nuw i8, ptr %14, i64 4
  store i32 1, ptr %14, align 4, !tbaa !8
  store i32 131096, ptr %21, align 4
  %22 = getelementptr inbounds nuw i8, ptr %14, i64 8
  store ptr %20, ptr %22, align 8, !tbaa !4
  %23 = getelementptr inbounds nuw i8, ptr %14, i64 16
  store ptr %7, ptr %23, align 8, !tbaa !4
  ret ptr %14
}